; Function Attrs: nounwind uwtable
define internal fastcc noalias nonnull ptr @_init_l_Array_forIn_x27Unsafe_loop___at_Lean_Elab_WF_solveDecreasingGoals___spec__3___boxed__const__1() unnamed_addr #1 {
  tail call void @lean_inc_heartbeat() #5
  %1 = tail call noalias ptr @mi_malloc_small(i64 noundef 16) #5
  %2 = icmp eq ptr %1, null
  br i1 %2, label %3, label %lean_box_usize.exit

3:                                                ; preds = %0
  tail call void @lean_internal_panic_out_of_memory() #6
  unreachable

lean_box_usize.exit:                              ; preds = %0
  %4 = getelementptr inbounds nuw i8, ptr %1, i64 4
  store i32 1, ptr %1, align 4, !tbaa !8
  store i32 16, ptr %4, align 4
  %5 = getelementptr inbounds nuw i8, ptr %1, i64 8
  store i64 0, ptr %5, align 8, !tbaa !4
  ret ptr %1
}